; Function Attrs: mustprogress uwtable
define void @_ZN3net22QuicCryptoClientStream19SetCachedProofValidEPNS_22QuicCryptoClientConfig11CachedStateE(ptr noundef nonnull readonly align 8 captures(none) dereferenceable(1268) %0, ptr noundef nonnull %1) local_unnamed_addr #0 align 2 {
  tail call void @_ZN3net22QuicCryptoClientConfig11CachedState13SetProofValidEv(ptr noundef nonnull align 8 dereferenceable(384) %1)
  %3 = getelementptr inbounds nuw i8, ptr %0, i64 1192
  %4 = load ptr, ptr %3, align 8, !tbaa !166
  %5 = load ptr, ptr %4, align 8, !tbaa !3
  %6 = getelementptr inbounds nuw i8, ptr %5, i64 16
  %7 = load ptr, ptr %6, align 8
  tail call void %7(ptr noundef nonnull align 8 dereferenceable(8) %4, ptr noundef nonnull align 8 dereferenceable(384) %1)
  ret void
}